; Function Attrs: mustprogress uwtable
define i32 @uspoof_getChecks_75(ptr noundef %sc, ptr noundef nonnull %status) local_unnamed_addr #0 {
entry:
  %call = tail call noundef ptr @_ZN6icu_759SpoofImpl12validateThisEPK13USpoofCheckerR10UErrorCode(ptr noundef %sc, ptr noundef nonnull align 4 dereferenceable(4) %status)
  %cmp = icmp eq ptr %call, null
  br i1 %cmp, label %return, label %if.end

if.end:                                           ; preds = %entry
  %fChecks = getelementptr inbounds i8, ptr %call, i64 12
  %0 = load i32, ptr %fChecks, align 4
  br label %return

return:                                           ; preds = %entry, %if.end
  %retval.0 = phi i32 [ %0, %if.end ], [ 0, %entry ]
  ret i32 %retval.0
}